target datalayout = "e-m:e-p270:32:32-p271:32:32-p272:64:64-i64:64-i128:128-f80:128-n8:16:32:64-S128"
target triple = "x86_64-pc-linux-gnu"

%struct.ResourceOwnerDesc = type { ptr, i32, i32, ptr, ptr }

@LocalRefCount = dso_local global ptr null, align 8
@CurrentResourceOwner = external global ptr, align 8
@NLocalPinnedBuffers = internal global i32 0, align 4
@buffer_pin_resowner_desc = external constant %struct.ResourceOwnerDesc, align 8

; Function Attrs: inlinehint nounwind uwtable
define internal i64 @Int32GetDatum(i32 noundef %0) #3 {
  %2 = alloca i32, align 4
  store i32 %0, ptr %2, align 4
  %3 = load i32, ptr %2, align 4
  %4 = sext i32 %3 to i64
  ret i64 %4
}

; Function Attrs: inlinehint nounwind uwtable
define internal void @ResourceOwnerForgetBuffer(ptr noundef %0, i32 noundef %1) #3 {
  %3 = alloca ptr, align 8
  %4 = alloca i32, align 4
  store ptr %0, ptr %3, align 8
  store i32 %1, ptr %4, align 4
  %5 = load ptr, ptr %3, align 8
  %6 = load i32, ptr %4, align 4
  %7 = call i64 @Int32GetDatum(i32 noundef %6)
  call void @ResourceOwnerForget(ptr noundef %5, i64 noundef %7, ptr noundef @buffer_pin_resowner_desc)
  ret void
}

; Function Attrs: nounwind uwtable
define dso_local void @UnpinLocalBufferNoOwner(i32 noundef %0) #0 {
  %2 = alloca i32, align 4
  %3 = alloca i32, align 4
  store i32 %0, ptr %2, align 4
  call void @llvm.lifetime.start.p0(i64 4, ptr %3) #9
  %4 = load i32, ptr %2, align 4
  %5 = sub i32 0, %4
  %6 = sub i32 %5, 1
  store i32 %6, ptr %3, align 4
  %7 = load ptr, ptr @LocalRefCount, align 8
  %8 = load i32, ptr %3, align 4
  %9 = sext i32 %8 to i64
  %10 = getelementptr inbounds i32, ptr %7, i64 %9
  %11 = load i32, ptr %10, align 4
  %12 = add i32 %11, -1
  store i32 %12, ptr %10, align 4
  %13 = icmp eq i32 %12, 0
  br i1 %13, label %14, label %17

14:                                               ; preds = %1
  %15 = load i32, ptr @NLocalPinnedBuffers, align 4
  %16 = add i32 %15, -1
  store i32 %16, ptr @NLocalPinnedBuffers, align 4
  br label %17

17:                                               ; preds = %14, %1
  call void @llvm.lifetime.end.p0(i64 4, ptr %3) #9
  ret void
}

; Function Attrs: nounwind uwtable
define dso_local void @UnpinLocalBuffer(i32 noundef %0) #0 {
  %2 = alloca i32, align 4
  store i32 %0, ptr %2, align 4
  %3 = load i32, ptr %2, align 4
  call void @UnpinLocalBufferNoOwner(i32 noundef %3)
  %4 = load ptr, ptr @CurrentResourceOwner, align 8
  %5 = load i32, ptr %2, align 4
  call void @ResourceOwnerForgetBuffer(ptr noundef %4, i32 noundef %5)
  ret void
}