; Function Attrs: nounwind uwtable
define dso_local void @UnpinLocalBuffer(i32 noundef %0) local_unnamed_addr #0 {
  %2 = xor i32 %0, -1
  %3 = load ptr, ptr @LocalRefCount, align 8
  %4 = sext i32 %2 to i64
  %5 = getelementptr inbounds i32, ptr %3, i64 %4
  %6 = load i32, ptr %5, align 4
  %7 = add i32 %6, -1
  store i32 %7, ptr %5, align 4
  %8 = icmp eq i32 %7, 0
  br i1 %8, label %9, label %UnpinLocalBufferNoOwner.exit

9:                                                ; preds = %1
  %10 = load i32, ptr @NLocalPinnedBuffers, align 4
  %11 = add i32 %10, -1
  store i32 %11, ptr @NLocalPinnedBuffers, align 4
  br label %UnpinLocalBufferNoOwner.exit

UnpinLocalBufferNoOwner.exit:                     ; preds = %1, %9
  %12 = load ptr, ptr @CurrentResourceOwner, align 8
  %13 = sext i32 %0 to i64
  tail call void @ResourceOwnerForget(ptr noundef %12, i64 noundef %13, ptr noundef nonnull @buffer_pin_resowner_desc) #14
  ret void
}